; Function Attrs: mustprogress uwtable
define dso_local void @_ZN4Luau7CodeGen3A6418AssemblyBuilderA644fmulENS1_11RegisterA64ES3_S3_(ptr noundef nonnull align 8 dereferenceable(176) %0, i8 %1, i8 %2, i8 %3) local_unnamed_addr #0 align 2 {
  %5 = and i8 %1, 7
  %6 = getelementptr inbounds nuw i8, ptr %0, i64 80
  %7 = load i8, ptr %6, align 8, !tbaa !14, !range !46, !noundef !47
  %8 = trunc nuw i8 %7 to i1
  switch i8 %5, label %49 [
    i8 4, label %9
    i8 3, label %29
  ]

9:                                                ; preds = %4
  br i1 %8, label %10, label %11

10:                                               ; preds = %9
  tail call void @_ZN4Luau7CodeGen3A6418AssemblyBuilderA643logEPKcNS1_11RegisterA64ES5_S5_i(ptr noundef nonnull align 8 dereferenceable(176) %0, ptr noundef nonnull @.str.56, i8 %1, i8 %2, i8 %3, i32 noundef 0)
  br label %11

11:                                               ; preds = %10, %9
  %12 = lshr i8 %1, 3
  %13 = zext nneg i8 %12 to i32
  %14 = lshr i8 %2, 3
  %15 = zext nneg i8 %14 to i32
  %16 = shl nuw nsw i32 %15, 5
  %17 = or disjoint i32 %16, %13
  %18 = lshr i8 %3, 3
  %19 = zext nneg i8 %18 to i32
  %20 = shl nuw nsw i32 %19, 16
  %21 = or disjoint i32 %17, %20
  %22 = or disjoint i32 %21, 509609984
  %23 = getelementptr inbounds nuw i8, ptr %0, i64 160
  %24 = load ptr, ptr %23, align 8, !tbaa !39
  %25 = getelementptr inbounds nuw i8, ptr %24, i64 4
  store ptr %25, ptr %23, align 8, !tbaa !39
  store i32 %22, ptr %24, align 4, !tbaa !48
  %26 = getelementptr inbounds nuw i8, ptr %0, i64 168
  %27 = load ptr, ptr %26, align 8, !tbaa !40
  %28 = icmp eq ptr %27, %25
  br i1 %28, label %_ZN4Luau7CodeGen3A6418AssemblyBuilderA647placeR3EPKcNS1_11RegisterA64ES5_S5_hh.exit.sink.split, label %_ZN4Luau7CodeGen3A6418AssemblyBuilderA647placeR3EPKcNS1_11RegisterA64ES5_S5_hh.exit

29:                                               ; preds = %4
  br i1 %8, label %30, label %31

30:                                               ; preds = %29
  tail call void @_ZN4Luau7CodeGen3A6418AssemblyBuilderA643logEPKcNS1_11RegisterA64ES5_S5_i(ptr noundef nonnull align 8 dereferenceable(176) %0, ptr noundef nonnull @.str.56, i8 %1, i8 %2, i8 %3, i32 noundef 0)
  br label %31

31:                                               ; preds = %30, %29
  %32 = lshr i8 %1, 3
  %33 = zext nneg i8 %32 to i32
  %34 = lshr i8 %2, 3
  %35 = zext nneg i8 %34 to i32
  %36 = shl nuw nsw i32 %35, 5
  %37 = or disjoint i32 %36, %33
  %38 = lshr i8 %3, 3
  %39 = zext nneg i8 %38 to i32
  %40 = shl nuw nsw i32 %39, 16
  %41 = or disjoint i32 %37, %40
  %42 = or disjoint i32 %41, 505415680
  %43 = getelementptr inbounds nuw i8, ptr %0, i64 160
  %44 = load ptr, ptr %43, align 8, !tbaa !39
  %45 = getelementptr inbounds nuw i8, ptr %44, i64 4
  store ptr %45, ptr %43, align 8, !tbaa !39
  store i32 %42, ptr %44, align 4, !tbaa !48
  %46 = getelementptr inbounds nuw i8, ptr %0, i64 168
  %47 = load ptr, ptr %46, align 8, !tbaa !40
  %48 = icmp eq ptr %47, %45
  br i1 %48, label %_ZN4Luau7CodeGen3A6418AssemblyBuilderA647placeR3EPKcNS1_11RegisterA64ES5_S5_hh.exit.sink.split, label %_ZN4Luau7CodeGen3A6418AssemblyBuilderA647placeR3EPKcNS1_11RegisterA64ES5_S5_hh.exit

49:                                               ; preds = %4
  %50 = lshr i8 %1, 3
  %51 = zext nneg i8 %50 to i32
  %52 = lshr i8 %2, 3
  %53 = zext nneg i8 %52 to i32
  %54 = lshr i8 %3, 3
  %55 = zext nneg i8 %54 to i32
  br i1 %8, label %56, label %._crit_edge.i

56:                                               ; preds = %49
  tail call void (ptr, ptr, ...) @_ZN4Luau7CodeGen3A6418AssemblyBuilderA649logAppendEPKcz(ptr noundef nonnull align 8 dereferenceable(176) %0, ptr noundef nonnull @.str.78, ptr noundef nonnull @.str.56, i32 noundef %51, i32 noundef %53, i32 noundef %55)
  br label %._crit_edge.i

._crit_edge.i:                                    ; preds = %56, %49
  %57 = shl nuw nsw i32 %53, 5
  %58 = shl nuw nsw i32 %55, 16
  %59 = or disjoint i32 %58, %57
  %60 = or disjoint i32 %59, %51
  %61 = or disjoint i32 %60, 1847647232
  %62 = getelementptr inbounds nuw i8, ptr %0, i64 160
  %63 = load ptr, ptr %62, align 8, !tbaa !39
  %64 = getelementptr inbounds nuw i8, ptr %63, i64 4
  store ptr %64, ptr %62, align 8, !tbaa !39
  store i32 %61, ptr %63, align 4, !tbaa !48
  %65 = getelementptr inbounds nuw i8, ptr %0, i64 168
  %66 = load ptr, ptr %65, align 8, !tbaa !40
  %67 = icmp eq ptr %66, %64
  br i1 %67, label %_ZN4Luau7CodeGen3A6418AssemblyBuilderA647placeR3EPKcNS1_11RegisterA64ES5_S5_hh.exit.sink.split, label %_ZN4Luau7CodeGen3A6418AssemblyBuilderA647placeR3EPKcNS1_11RegisterA64ES5_S5_hh.exit

_ZN4Luau7CodeGen3A6418AssemblyBuilderA647placeR3EPKcNS1_11RegisterA64ES5_S5_hh.exit.sink.split: ; preds = %._crit_edge.i, %31, %11
  tail call void @_ZN4Luau7CodeGen3A6418AssemblyBuilderA646extendEv(ptr noundef nonnull align 8 dereferenceable(176) %0)
  br label %_ZN4Luau7CodeGen3A6418AssemblyBuilderA647placeR3EPKcNS1_11RegisterA64ES5_S5_hh.exit

_ZN4Luau7CodeGen3A6418AssemblyBuilderA647placeR3EPKcNS1_11RegisterA64ES5_S5_hh.exit: ; preds = %_ZN4Luau7CodeGen3A6418AssemblyBuilderA647placeR3EPKcNS1_11RegisterA64ES5_S5_hh.exit.sink.split, %._crit_edge.i, %31, %11
  ret void
}